; ModuleID = '63/1957.c'
source_filename = "63/1957.c"
target datalayout = "e-m:e-p270:32:32-p271:32:32-p272:64:64-i64:64-f80:128-n8:16:32:64-S128"
target triple = "x86_64-pc-linux-gnu"

@.str = private unnamed_addr constant [6 x i8] c"%d %d\00", align 1
@.str.1 = private unnamed_addr constant [5 x i8] c"%d%c\00", align 1
@.str.2 = private unnamed_addr constant [4 x i8] c"%d \00", align 1
@.str.3 = private unnamed_addr constant [4 x i8] c"%d\0A\00", align 1

; Function Attrs: noinline nounwind uwtable
define dso_local i32 @main() #0 {
  %1 = alloca i32, align 4
  %2 = alloca [100 x [100 x i32]], align 16
  %3 = alloca [100 x [100 x i32]], align 16
  %4 = alloca i32, align 4
  %5 = alloca i32, align 4
  %6 = alloca i32, align 4
  %7 = alloca i32, align 4
  %8 = alloca i32, align 4
  %9 = alloca i32, align 4
  %10 = alloca i32, align 4
  %11 = alloca i32, align 4
  %12 = alloca [100 x [100 x i32]], align 16
  %13 = alloca i8, align 1
  store i32 0, i32* %1, align 4
  %14 = call i32 (i8*, ...) @__isoc99_scanf(i8* getelementptr inbounds ([6 x i8], [6 x i8]* @.str, i64 0, i64 0), i32* %4, i32* %5)
  store i32 0, i32* %10, align 4
  br label %15

15:                                               ; preds = %44, %0
  %16 = load i32, i32* %10, align 4
  %17 = load i32, i32* %4, align 4
  %18 = sub nsw i32 %17, 1
  %19 = icmp sle i32 %16, %18
  br i1 %19, label %20, label %47

20:                                               ; preds = %15
  store i32 0, i32* %11, align 4
  br label %21

21:                                               ; preds = %40, %20
  %22 = load i32, i32* %11, align 4
  %23 = load i32, i32* %5, align 4
  %24 = sub nsw i32 %23, 1
  %25 = icmp sle i32 %22, %24
  br i1 %25, label %26, label %43

26:                                               ; preds = %21
  %27 = load i32, i32* %10, align 4
  %28 = sext i32 %27 to i64
  %29 = getelementptr inbounds [100 x [100 x i32]], [100 x [100 x i32]]* %2, i64 0, i64 %28
  %30 = load i32, i32* %11, align 4
  %31 = sext i32 %30 to i64
  %32 = getelementptr inbounds [100 x i32], [100 x i32]* %29, i64 0, i64 %31
  %33 = call i32 (i8*, ...) @__isoc99_scanf(i8* getelementptr inbounds ([5 x i8], [5 x i8]* @.str.1, i64 0, i64 0), i32* %32, i8* %13)
  %34 = load i8, i8* %13, align 1
  %35 = sext i8 %34 to i32
  %36 = icmp ne i32 %35, 32
  br i1 %36, label %37, label %38

37:                                               ; preds = %26
  br label %43

38:                                               ; preds = %26
  br label %39

39:                                               ; preds = %38
  br label %40

40:                                               ; preds = %39
  %41 = load i32, i32* %11, align 4
  %42 = add nsw i32 %41, 1
  store i32 %42, i32* %11, align 4
  br label %21

43:                                               ; preds = %37, %21
  br label %44

44:                                               ; preds = %43
  %45 = load i32, i32* %10, align 4
  %46 = add nsw i32 %45, 1
  store i32 %46, i32* %10, align 4
  br label %15

47:                                               ; preds = %15
  %48 = call i32 (i8*, ...) @__isoc99_scanf(i8* getelementptr inbounds ([6 x i8], [6 x i8]* @.str, i64 0, i64 0), i32* %6, i32* %7)
  store i32 0, i32* %10, align 4
  br label %49

49:                                               ; preds = %78, %47
  %50 = load i32, i32* %10, align 4
  %51 = load i32, i32* %6, align 4
  %52 = sub nsw i32 %51, 1
  %53 = icmp sle i32 %50, %52
  br i1 %53, label %54, label %81

54:                                               ; preds = %49
  store i32 0, i32* %11, align 4
  br label %55

55:                                               ; preds = %74, %54
  %56 = load i32, i32* %11, align 4
  %57 = load i32, i32* %7, align 4
  %58 = sub nsw i32 %57, 1
  %59 = icmp sle i32 %56, %58
  br i1 %59, label %60, label %77

60:                                               ; preds = %55
  %61 = load i32, i32* %10, align 4
  %62 = sext i32 %61 to i64
  %63 = getelementptr inbounds [100 x [100 x i32]], [100 x [100 x i32]]* %3, i64 0, i64 %62
  %64 = load i32, i32* %11, align 4
  %65 = sext i32 %64 to i64
  %66 = getelementptr inbounds [100 x i32], [100 x i32]* %63, i64 0, i64 %65
  %67 = call i32 (i8*, ...) @__isoc99_scanf(i8* getelementptr inbounds ([5 x i8], [5 x i8]* @.str.1, i64 0, i64 0), i32* %66, i8* %13)
  %68 = load i8, i8* %13, align 1
  %69 = sext i8 %68 to i32
  %70 = icmp ne i32 %69, 32
  br i1 %70, label %71, label %72

71:                                               ; preds = %60
  br label %77

72:                                               ; preds = %60
  br label %73

73:                                               ; preds = %72
  br label %74

74:                                               ; preds = %73
  %75 = load i32, i32* %11, align 4
  %76 = add nsw i32 %75, 1
  store i32 %76, i32* %11, align 4
  br label %55

77:                                               ; preds = %71, %55
  br label %78

78:                                               ; preds = %77
  %79 = load i32, i32* %10, align 4
  %80 = add nsw i32 %79, 1
  store i32 %80, i32* %10, align 4
  br label %49

81:                                               ; preds = %49
  %82 = load i32, i32* %4, align 4
  store i32 %82, i32* %8, align 4
  %83 = load i32, i32* %7, align 4
  store i32 %83, i32* %9, align 4
  store i32 0, i32* %10, align 4
  br label %84

84:                                               ; preds = %146, %81
  %85 = load i32, i32* %10, align 4
  %86 = load i32, i32* %8, align 4
  %87 = sub nsw i32 %86, 1
  %88 = icmp sle i32 %85, %87
  br i1 %88, label %89, label %149

89:                                               ; preds = %84
  store i32 0, i32* %11, align 4
  br label %90

90:                                               ; preds = %142, %89
  %91 = load i32, i32* %11, align 4
  %92 = load i32, i32* %9, align 4
  %93 = sub nsw i32 %92, 1
  %94 = icmp sle i32 %91, %93
  br i1 %94, label %95, label %145

95:                                               ; preds = %90
  %96 = load i32, i32* %10, align 4
  %97 = sext i32 %96 to i64
  %98 = getelementptr inbounds [100 x [100 x i32]], [100 x [100 x i32]]* %12, i64 0, i64 %97
  %99 = load i32, i32* %11, align 4
  %100 = sext i32 %99 to i64
  %101 = getelementptr inbounds [100 x i32], [100 x i32]* %98, i64 0, i64 %100
  store i32 0, i32* %101, align 4
  store i8 0, i8* %13, align 1
  br label %102

102:                                              ; preds = %138, %95
  %103 = load i8, i8* %13, align 1
  %104 = sext i8 %103 to i32
  %105 = load i32, i32* %6, align 4
  %106 = sub nsw i32 %105, 1
  %107 = icmp sle i32 %104, %106
  br i1 %107, label %108, label %141

108:                                              ; preds = %102
  %109 = load i32, i32* %10, align 4
  %110 = sext i32 %109 to i64
  %111 = getelementptr inbounds [100 x [100 x i32]], [100 x [100 x i32]]* %12, i64 0, i64 %110
  %112 = load i32, i32* %11, align 4
  %113 = sext i32 %112 to i64
  %114 = getelementptr inbounds [100 x i32], [100 x i32]* %111, i64 0, i64 %113
  %115 = load i32, i32* %114, align 4
  %116 = load i32, i32* %10, align 4
  %117 = sext i32 %116 to i64
  %118 = getelementptr inbounds [100 x [100 x i32]], [100 x [100 x i32]]* %2, i64 0, i64 %117
  %119 = load i8, i8* %13, align 1
  %120 = sext i8 %119 to i64
  %121 = getelementptr inbounds [100 x i32], [100 x i32]* %118, i64 0, i64 %120
  %122 = load i32, i32* %121, align 4
  %123 = load i8, i8* %13, align 1
  %124 = sext i8 %123 to i64
  %125 = getelementptr inbounds [100 x [100 x i32]], [100 x [100 x i32]]* %3, i64 0, i64 %124
  %126 = load i32, i32* %11, align 4
  %127 = sext i32 %126 to i64
  %128 = getelementptr inbounds [100 x i32], [100 x i32]* %125, i64 0, i64 %127
  %129 = load i32, i32* %128, align 4
  %130 = mul nsw i32 %122, %129
  %131 = add nsw i32 %115, %130
  %132 = load i32, i32* %10, align 4
  %133 = sext i32 %132 to i64
  %134 = getelementptr inbounds [100 x [100 x i32]], [100 x [100 x i32]]* %12, i64 0, i64 %133
  %135 = load i32, i32* %11, align 4
  %136 = sext i32 %135 to i64
  %137 = getelementptr inbounds [100 x i32], [100 x i32]* %134, i64 0, i64 %136
  store i32 %131, i32* %137, align 4
  br label %138

138:                                              ; preds = %108
  %139 = load i8, i8* %13, align 1
  %140 = add i8 %139, 1
  store i8 %140, i8* %13, align 1
  br label %102

141:                                              ; preds = %102
  br label %142

142:                                              ; preds = %141
  %143 = load i32, i32* %11, align 4
  %144 = add nsw i32 %143, 1
  store i32 %144, i32* %11, align 4
  br label %90

145:                                              ; preds = %90
  br label %146

146:                                              ; preds = %145
  %147 = load i32, i32* %10, align 4
  %148 = add nsw i32 %147, 1
  store i32 %148, i32* %10, align 4
  br label %84

149:                                              ; preds = %84
  store i32 0, i32* %10, align 4
  br label %150

150:                                              ; preds = %183, %149
  %151 = load i32, i32* %10, align 4
  %152 = load i32, i32* %8, align 4
  %153 = sub nsw i32 %152, 1
  %154 = icmp sle i32 %151, %153
  br i1 %154, label %155, label %186

155:                                              ; preds = %150
  store i32 0, i32* %11, align 4
  br label %156

156:                                              ; preds = %170, %155
  %157 = load i32, i32* %11, align 4
  %158 = load i32, i32* %9, align 4
  %159 = sub nsw i32 %158, 2
  %160 = icmp sle i32 %157, %159
  br i1 %160, label %161, label %173

161:                                              ; preds = %156
  %162 = load i32, i32* %10, align 4
  %163 = sext i32 %162 to i64
  %164 = getelementptr inbounds [100 x [100 x i32]], [100 x [100 x i32]]* %12, i64 0, i64 %163
  %165 = load i32, i32* %11, align 4
  %166 = sext i32 %165 to i64
  %167 = getelementptr inbounds [100 x i32], [100 x i32]* %164, i64 0, i64 %166
  %168 = load i32, i32* %167, align 4
  %169 = call i32 (i8*, ...) @printf(i8* getelementptr inbounds ([4 x i8], [4 x i8]* @.str.2, i64 0, i64 0), i32 %168)
  br label %170

170:                                              ; preds = %161
  %171 = load i32, i32* %11, align 4
  %172 = add nsw i32 %171, 1
  store i32 %172, i32* %11, align 4
  br label %156

173:                                              ; preds = %156
  %174 = load i32, i32* %10, align 4
  %175 = sext i32 %174 to i64
  %176 = getelementptr inbounds [100 x [100 x i32]], [100 x [100 x i32]]* %12, i64 0, i64 %175
  %177 = load i32, i32* %9, align 4
  %178 = sub nsw i32 %177, 1
  %179 = sext i32 %178 to i64
  %180 = getelementptr inbounds [100 x i32], [100 x i32]* %176, i64 0, i64 %179
  %181 = load i32, i32* %180, align 4
  %182 = call i32 (i8*, ...) @printf(i8* getelementptr inbounds ([4 x i8], [4 x i8]* @.str.3, i64 0, i64 0), i32 %181)
  br label %183

183:                                              ; preds = %173
  %184 = load i32, i32* %10, align 4
  %185 = add nsw i32 %184, 1
  store i32 %185, i32* %10, align 4
  br label %150

186:                                              ; preds = %150
  %187 = load i32, i32* %1, align 4
  ret i32 %187
}

declare dso_local i32 @__isoc99_scanf(i8*, ...) #1

declare dso_local i32 @printf(i8*, ...) #1


!llvm.module.flags = !{!0}
!llvm.ident = !{!1}

!0 = !{i32 1, !"wchar_size", i32 4}
!1 = !{!"clang version 10.0.0-4ubuntu1 "}
